target datalayout = "e-m:e-p270:32:32-p271:32:32-p272:64:64-i64:64-i128:128-f80:128-n8:16:32:64-S128"
target triple = "x86_64-pc-linux-gnu"

%struct.persist_msg_t = type { ptr, ptr, i16 }
%struct.dbd_node_state_msg = type { i64, ptr, ptr, ptr, ptr, i16, ptr, i32, i32, ptr }
%struct.node_record = type { ptr, ptr, i16, i64, i64, ptr, ptr, ptr, i16, ptr, i16, i16, i32, i32, i64, ptr, i16, i16, ptr, ptr, ptr, ptr, ptr, i64, i64, ptr, ptr, ptr, ptr, i32, ptr, ptr, i64, i64, i32, ptr, i64, ptr, i32, i16, ptr, ptr, i32, ptr, i32, i8, ptr, i32, i16, i16, ptr, i16, i64, i16, i64, ptr, i64, i32, i16, i64, i16, ptr, i16, i64, ptr, i64, i16, i32, i16, ptr, ptr, ptr, i16, i32, i16, i16, i32, ptr, i16, i32 }

; Function Attrs: nounwind uwtable
define dso_local i32 @clusteracct_storage_p_node_up(ptr noundef %0, ptr noundef %1, i64 noundef %2) #0 {
  %4 = alloca i32, align 4
  %5 = alloca ptr, align 8
  %6 = alloca ptr, align 8
  %7 = alloca i64, align 8
  %8 = alloca %struct.persist_msg_t, align 8
  %9 = alloca %struct.dbd_node_state_msg, align 8
  %10 = alloca i32, align 4
  store ptr %0, ptr %5, align 8
  store ptr %1, ptr %6, align 8
  store i64 %2, ptr %7, align 8
  call void @llvm.lifetime.start.p0(i64 24, ptr %8) #9
  call void @llvm.memset.p0.i64(ptr align 8 %8, i8 0, i64 24, i1 false)
  call void @llvm.lifetime.start.p0(i64 72, ptr %9) #9
  %11 = load ptr, ptr %6, align 8
  %12 = getelementptr inbounds nuw %struct.node_record, ptr %11, i32 0, i32 44
  %13 = load i32, ptr %12, align 8
  %14 = and i32 %13, 15
  %15 = icmp eq i32 %14, 6
  br i1 %15, label %23, label %16

16:                                               ; preds = %3
  %17 = load ptr, ptr %6, align 8
  %18 = getelementptr inbounds nuw %struct.node_record, ptr %17, i32 0, i32 44
  %19 = load i32, ptr %18, align 8
  %20 = zext i32 %19 to i64
  %21 = and i64 %20, 4096
  %22 = icmp ne i64 %21, 0
  br i1 %22, label %23, label %24

23:                                               ; preds = %16, %3
  store i32 0, ptr %4, align 4
  store i32 1, ptr %10, align 4
  br label %41

24:                                               ; preds = %16
  call void @llvm.memset.p0.i64(ptr align 8 %9, i8 0, i64 72, i1 false)
  %25 = load ptr, ptr %6, align 8
  %26 = getelementptr inbounds nuw %struct.node_record, ptr %25, i32 0, i32 37
  %27 = load ptr, ptr %26, align 8
  %28 = getelementptr inbounds nuw %struct.dbd_node_state_msg, ptr %9, i32 0, i32 2
  store ptr %27, ptr %28, align 8
  %29 = getelementptr inbounds nuw %struct.dbd_node_state_msg, ptr %9, i32 0, i32 5
  store i16 2, ptr %29, align 8
  %30 = load i64, ptr %7, align 8
  %31 = getelementptr inbounds nuw %struct.dbd_node_state_msg, ptr %9, i32 0, i32 0
  store i64 %30, ptr %31, align 8
  %32 = getelementptr inbounds nuw %struct.dbd_node_state_msg, ptr %9, i32 0, i32 6
  store ptr null, ptr %32, align 8
  %33 = getelementptr inbounds nuw %struct.persist_msg_t, ptr %8, i32 0, i32 2
  store i16 1432, ptr %33, align 8
  %34 = load ptr, ptr %5, align 8
  %35 = getelementptr inbounds nuw %struct.persist_msg_t, ptr %8, i32 0, i32 0
  store ptr %34, ptr %35, align 8
  %36 = getelementptr inbounds nuw %struct.persist_msg_t, ptr %8, i32 0, i32 1
  store ptr %9, ptr %36, align 8
  %37 = call i32 @slurmdbd_agent_send(i16 noundef zeroext 11008, ptr noundef %8)
  %38 = icmp slt i32 %37, 0
  br i1 %38, label %39, label %40

39:                                               ; preds = %24
  store i32 -1, ptr %4, align 4
  store i32 1, ptr %10, align 4
  br label %41

40:                                               ; preds = %24
  store i32 0, ptr %4, align 4
  store i32 1, ptr %10, align 4
  br label %41

41:                                               ; preds = %40, %39, %23
  call void @llvm.lifetime.end.p0(i64 72, ptr %9) #9
  call void @llvm.lifetime.end.p0(i64 24, ptr %8) #9
  %42 = load i32, ptr %4, align 4
  ret i32 %42
}