; Function Attrs: nounwind uwtable
define dso_local range(i32 -1, 1) i32 @clusteracct_storage_p_node_up(ptr noundef %0, ptr noundef readonly captures(none) %1, i64 noundef %2) local_unnamed_addr #0 {
  %4 = alloca %struct.persist_msg_t, align 8
  %5 = alloca %struct.dbd_node_state_msg, align 8
  call void @llvm.lifetime.start.p0(i64 24, ptr nonnull %4) #11
  %6 = getelementptr inbounds nuw i8, ptr %4, i64 16
  store i64 0, ptr %6, align 8
  call void @llvm.lifetime.start.p0(i64 72, ptr nonnull %5) #11
  %7 = getelementptr inbounds nuw i8, ptr %1, i64 320
  %8 = load i32, ptr %7, align 8
  %9 = and i32 %8, 15
  %10 = icmp ne i32 %9, 6
  %11 = and i32 %8, 4096
  %.not = icmp eq i32 %11, 0
  %or.cond = and i1 %10, %.not
  br i1 %or.cond, label %12, label %21

12:                                               ; preds = %3
  %13 = getelementptr inbounds nuw i8, ptr %5, i64 8
  call void @llvm.memset.p0.i64(ptr noundef nonnull align 8 dereferenceable(72) %13, i8 0, i64 64, i1 false)
  %14 = getelementptr inbounds nuw i8, ptr %1, i64 272
  %15 = load ptr, ptr %14, align 8
  %16 = getelementptr inbounds nuw i8, ptr %5, i64 16
  store ptr %15, ptr %16, align 8
  %17 = getelementptr inbounds nuw i8, ptr %5, i64 40
  store i16 2, ptr %17, align 8
  store i64 %2, ptr %5, align 8
  %18 = getelementptr inbounds nuw i8, ptr %4, i64 16
  store i16 1432, ptr %18, align 8
  store ptr %0, ptr %4, align 8
  %19 = getelementptr inbounds nuw i8, ptr %4, i64 8
  store ptr %5, ptr %19, align 8
  %20 = call i32 @slurmdbd_agent_send(i16 noundef zeroext 11008, ptr noundef nonnull %4) #11
  %.lobit = ashr i32 %20, 31
  br label %21

21:                                               ; preds = %12, %3
  %.0 = phi i32 [ 0, %3 ], [ %.lobit, %12 ]
  call void @llvm.lifetime.end.p0(i64 72, ptr nonnull %5) #11
  call void @llvm.lifetime.end.p0(i64 24, ptr nonnull %4) #11
  ret i32 %.0
}